-----BEGIN RSA PRIVATE KEY-----
MIICXAIBAAKBgQCnEZj1FraE5G+usC2FI6ddPoTxyXR7uGbUzDa1xiTDn4GahQUz
kflqKi7+g8/Oujib48ylyAgzaQhVx26GPqBRRrg6waq4U6LqEeDKGIOicD64GpjM
WC9QdZfwhFW1jrqcjzuBqai9T88Y8E8heYgx1JiQAE0a4uoB1tCRmU+b6wIDAQAB
AoGAM9f5IC0RLIH6yjmvln4u5HePJ7y9IdtiRaytWZEIPZBU1o9qwssMm85FUQO0
S9Fr2axCCDvfl5yDUqMVgCEU/ENV1+X2muyK4FijMzcBFRo+PK04O1z9uOW9hWNa
h6ACPY9ZHAUqkBebxJX47FBPDeGpqoZGWasi+uTUxMV0YnkCQQDTB2YFpX5P1Rn6
ECZnNQ/ICP1gegp/bfAw1MIh//9pbqLarD+ClXsjmxhFXlAZCdjg/5Ov1bmi6Mlo
jnmtJFFPAkEAyqv4GKX878EDKxFOJ8FZE3EevqPuBwPKiti3q1VCNFQTKchAcyYs
wi1UHbxivS+ofEUiofMIDwRhLhoYGJCMpQJBAKydRadiulJExq3UHgWX0qPWLqOG
0CVx4OGgdndnNh2goNdrw7tl2EbEq3K6dZw1gNByXfSbRvBpp629tOuaZGMCQBAg
lRJpCvKNGlJwAxcYxJzOcJLc+pDmVVStIBhrJWSCmC/H9pDzJbah4sKm/fht9WtG
GRZn/2kqgQ0pGGfEAN0CQGG6mpyk0uC1GblM6u2/9XKFlZbZnzUXgNGzOQGltpay
R2Q7wUeu3D2yoS6CeSVwW+94dNyCbsXUSap9pJX6Q/4=
-----END RSA PRIVATE KEY-----
Certificate:
    Data:
        Version: 3 (0x2)
        Serial Number: 87 (0x57)
        Signature Algorithm: md5WithRSAEncryption
        Issuer: C=US, ST=Massachusetts, L=Cambridge, O=GENI Project Office, OU=Certificate Authority, CN=boss.pgeni3.gpolab.bbn.com/emailAddress=testbed-ops@ops.pgeni3.gpolab.bbn.com
        Validity
            Not Before: Mar 13 01:41:35 2012 GMT
            Not After : Sep  3 02:41:35 2017 GMT
        Subject: C=US, ST=Massachusetts, O=GENI Project Office, OU=bbn-pgeni3.cm, CN=26e3094e-98fd-11df-ad6d-000c290b474e/emailAddress=testbed-ops@ops.pgeni3.gpolab.bbn.com
        Subject Public Key Info:
            Public Key Algorithm: rsaEncryption
            RSA Public Key: (1024 bit)
                Modulus (1024 bit):
                    00:a7:11:98:f5:16:b6:84:e4:6f:ae:b0:2d:85:23:
                    a7:5d:3e:84:f1:c9:74:7b:b8:66:d4:cc:36:b5:c6:
                    24:c3:9f:81:9a:85:05:33:91:f9:6a:2a:2e:fe:83:
                    cf:ce:ba:38:9b:e3:cc:a5:c8:08:33:69:08:55:c7:
                    6e:86:3e:a0:51:46:b8:3a:c1:aa:b8:53:a2:ea:11:
                    e0:ca:18:83:a2:70:3e:b8:1a:98:cc:58:2f:50:75:
                    97:f0:84:55:b5:8e:ba:9c:8f:3b:81:a9:a8:bd:4f:
                    cf:18:f0:4f:21:79:88:31:d4:98:90:00:4d:1a:e2:
                    ea:01:d6:d0:91:99:4f:9b:eb
                Exponent: 65537 (0x10001)
        X509v3 extensions:
            X509v3 Subject Key Identifier: 
                B7:3D:3C:DA:CF:4D:B8:A7:32:51:B1:64:68:61:05:15:88:5F:02:76
            X509v3 Subject Alternative Name: 
                URI:urn:publicid:IDN+pgeni3.gpolab.bbn.com+authority+cm
            X509v3 Basic Constraints: critical
                CA:TRUE
            Authority Information Access: 
                2.25.305821105408246119474742976030998643995 - URI:https://www.pgeni3.gpolab.bbn.com:12369/protogeni/xmlrpc/cm

    Signature Algorithm: md5WithRSAEncryption
        1d:41:2e:4c:e6:70:7a:46:11:d2:2b:70:41:de:d9:76:b9:36:
        d2:dd:85:8a:fe:99:1d:1f:37:66:a0:76:06:3c:42:4f:0e:d3:
        12:62:3c:d7:e5:d0:fb:b5:40:4d:3e:17:f4:c3:48:0c:6b:d0:
        5e:64:88:74:54:04:f3:34:ef:ce:02:da:dc:29:f4:e6:e6:da:
        0d:d6:d0:25:ab:03:f8:1a:89:54:88:bd:88:bf:a1:e4:43:0c:
        69:c0:e0:6f:e1:07:a9:5c:65:49:2c:4a:c3:ac:8c:7a:0f:71:
        40:ae:0c:e5:ae:53:0b:37:a1:5b:5a:e3:fd:3f:2a:4d:2b:1c:
        ab:2c
-----BEGIN CERTIFICATE-----
MIID4zCCA0ygAwIBAgIBVzANBgkqhkiG9w0BAQQFADCB0jELMAkGA1UEBhMCVVMx
FjAUBgNVBAgTDU1hc3NhY2h1c2V0dHMxEjAQBgNVBAcTCUNhbWJyaWRnZTEcMBoG
A1UEChMTR0VOSSBQcm9qZWN0IE9mZmljZTEeMBwGA1UECxMVQ2VydGlmaWNhdGUg
QXV0aG9yaXR5MSMwIQYDVQQDExpib3NzLnBnZW5pMy5ncG9sYWIuYmJuLmNvbTE0
MDIGCSqGSIb3DQEJARYldGVzdGJlZC1vcHNAb3BzLnBnZW5pMy5ncG9sYWIuYmJu
LmNvbTAeFw0xMjAzMTMwMTQxMzVaFw0xNzA5MDMwMjQxMzVaMIHAMQswCQYDVQQG
EwJVUzEWMBQGA1UECBMNTWFzc2FjaHVzZXR0czEcMBoGA1UEChMTR0VOSSBQcm9q
ZWN0IE9mZmljZTEWMBQGA1UECxMNYmJuLXBnZW5pMy5jbTEtMCsGA1UEAxMkMjZl
MzA5NGUtOThmZC0xMWRmLWFkNmQtMDAwYzI5MGI0NzRlMTQwMgYJKoZIhvcNAQkB
FiV0ZXN0YmVkLW9wc0BvcHMucGdlbmkzLmdwb2xhYi5iYm4uY29tMIGfMA0GCSqG
SIb3DQEBAQUAA4GNADCBiQKBgQCnEZj1FraE5G+usC2FI6ddPoTxyXR7uGbUzDa1
xiTDn4GahQUzkflqKi7+g8/Oujib48ylyAgzaQhVx26GPqBRRrg6waq4U6LqEeDK
GIOicD64GpjMWC9QdZfwhFW1jrqcjzuBqai9T88Y8E8heYgx1JiQAE0a4uoB1tCR
mU+b6wIDAQABo4HYMIHVMB0GA1UdDgQWBBS3PTzaz024pzJRsWRoYQUViF8CdjA+
BgNVHREENzA1hjN1cm46cHVibGljaWQ6SUROK3BnZW5pMy5ncG9sYWIuYmJuLmNv
bSthdXRob3JpdHkrY20wDwYDVR0TAQH/BAUwAwEB/zBjBggrBgEFBQcBAQRXMFUw
UwYUaYPMk4ComMyox72xp4CAqq7XihuGO2h0dHBzOi8vd3d3LnBnZW5pMy5ncG9s
YWIuYmJuLmNvbToxMjM2OS9wcm90b2dlbmkveG1scnBjL2NtMA0GCSqGSIb3DQEB
BAUAA4GBAB1BLkzmcHpGEdIrcEHe2Xa5NtLdhYr+mR0fN2agdgY8Qk8O0xJiPNfl
0Pu1QE0+F/TDSAxr0F5kiHRUBPM0784C2twp9Obm2g3W0CWrA/gaiVSIvYi/oeRD
DGnA4G/hB6lcZUksSsOsjHoPcUCuDOWuUws3oVta4/0/Kk0rHKss
-----END CERTIFICATE-----
