Certificate:
    Data:
        Version: 3 (0x2)
        Serial Number:
            e8:91:e7:83:60:b4:36:bc
        Signature Algorithm: md5WithRSAEncryption
        Issuer: C=US, ST=Massachusetts, L=Cambridge, O=GENI Project Office, OU=Certificate Authority, CN=boss.pgeni3.gpolab.bbn.com/emailAddress=testbed-ops@ops.pgeni3.gpolab.bbn.com
        Validity
            Not Before: Jul 24 00:07:45 2010 GMT
            Not After : Jan 14 00:07:45 2016 GMT
        Subject: C=US, ST=Massachusetts, L=Cambridge, O=GENI Project Office, OU=Certificate Authority, CN=boss.pgeni3.gpolab.bbn.com/emailAddress=testbed-ops@ops.pgeni3.gpolab.bbn.com
        Subject Public Key Info:
            Public Key Algorithm: rsaEncryption
            RSA Public Key: (1024 bit)
                Modulus (1024 bit):
                    00:c3:15:b7:5f:d4:48:e3:62:ef:65:26:bb:d7:7a:
                    9c:c8:e3:bf:61:ea:fb:f0:55:e5:53:56:7e:43:bc:
                    b6:c2:32:15:69:25:d1:44:9d:53:53:4d:f0:cb:50:
                    bd:c9:35:58:d1:43:c3:a2:31:ac:4d:06:db:1d:1b:
                    bd:02:9a:5e:22:b1:b3:10:c4:05:de:3c:9d:7a:86:
                    55:18:ad:0c:e5:2d:37:61:91:f4:cc:06:98:c7:cd:
                    6f:70:b2:40:c2:bb:17:52:c0:6b:08:a7:ca:3f:89:
                    bd:79:2f:8e:90:99:e0:57:de:01:69:d7:8f:69:f4:
                    9d:12:a9:86:f8:c5:5f:7e:7b
                Exponent: 65537 (0x10001)
        X509v3 extensions:
            X509v3 Subject Key Identifier: 
                94:27:90:4D:45:AB:EB:56:5F:C2:0B:E7:2B:C7:B9:C6:AA:A0:9F:E6
            X509v3 Authority Key Identifier: 
                keyid:94:27:90:4D:45:AB:EB:56:5F:C2:0B:E7:2B:C7:B9:C6:AA:A0:9F:E6
                DirName:/C=US/ST=Massachusetts/L=Cambridge/O=GENI Project Office/OU=Certificate Authority/CN=boss.pgeni3.gpolab.bbn.com/emailAddress=testbed-ops@ops.pgeni3.gpolab.bbn.com
                serial:E8:91:E7:83:60:B4:36:BC

            X509v3 Basic Constraints: 
                CA:TRUE
            X509v3 Subject Alternative Name: 
                URI:urn:publicid:IDN+pgeni3.gpolab.bbn.com+authority+root
            X509v3 Issuer Alternative Name: 
                URI:urn:publicid:IDN+pgeni3.gpolab.bbn.com+authority+root
    Signature Algorithm: md5WithRSAEncryption
        40:78:63:63:d3:c8:a4:b4:c2:72:86:2e:30:0e:db:42:82:f5:
        9b:bc:59:3f:98:2b:2d:be:e3:80:09:77:c8:f6:3f:44:5f:dc:
        29:21:9f:2a:8c:0b:87:5b:ec:2d:9c:e9:0b:b9:7f:7c:63:2a:
        6c:1a:cb:c4:e9:7a:01:c3:eb:31:54:fe:fb:92:61:f2:fe:66:
        b6:c1:d4:36:b5:d4:bf:28:7e:21:86:d1:0f:76:aa:9f:f3:ff:
        17:eb:65:00:32:63:fb:06:93:fd:9c:3d:44:06:0d:1e:a6:02:
        e8:a9:b6:01:ff:9d:44:a0:88:a4:aa:8d:3c:06:b6:78:55:43:
        4b:29
-----BEGIN CERTIFICATE-----
MIIE5jCCBE+gAwIBAgIJAOiR54NgtDa8MA0GCSqGSIb3DQEBBAUAMIHSMQswCQYD
VQQGEwJVUzEWMBQGA1UECBMNTWFzc2FjaHVzZXR0czESMBAGA1UEBxMJQ2FtYnJp
ZGdlMRwwGgYDVQQKExNHRU5JIFByb2plY3QgT2ZmaWNlMR4wHAYDVQQLExVDZXJ0
aWZpY2F0ZSBBdXRob3JpdHkxIzAhBgNVBAMTGmJvc3MucGdlbmkzLmdwb2xhYi5i
Ym4uY29tMTQwMgYJKoZIhvcNAQkBFiV0ZXN0YmVkLW9wc0BvcHMucGdlbmkzLmdw
b2xhYi5iYm4uY29tMB4XDTEwMDcyNDAwMDc0NVoXDTE2MDExNDAwMDc0NVowgdIx
CzAJBgNVBAYTAlVTMRYwFAYDVQQIEw1NYXNzYWNodXNldHRzMRIwEAYDVQQHEwlD
YW1icmlkZ2UxHDAaBgNVBAoTE0dFTkkgUHJvamVjdCBPZmZpY2UxHjAcBgNVBAsT
FUNlcnRpZmljYXRlIEF1dGhvcml0eTEjMCEGA1UEAxMaYm9zcy5wZ2VuaTMuZ3Bv
bGFiLmJibi5jb20xNDAyBgkqhkiG9w0BCQEWJXRlc3RiZWQtb3BzQG9wcy5wZ2Vu
aTMuZ3BvbGFiLmJibi5jb20wgZ8wDQYJKoZIhvcNAQEBBQADgY0AMIGJAoGBAMMV
t1/USONi72Umu9d6nMjjv2Hq+/BV5VNWfkO8tsIyFWkl0USdU1NN8MtQvck1WNFD
w6IxrE0G2x0bvQKaXiKxsxDEBd48nXqGVRitDOUtN2GR9MwGmMfNb3CyQMK7F1LA
awinyj+JvXkvjpCZ4FfeAWnXj2n0nRKphvjFX357AgMBAAGjggHAMIIBvDAdBgNV
HQ4EFgQUlCeQTUWr61ZfwgvnK8e5xqqgn+YwggEHBgNVHSMEgf8wgfyAFJQnkE1F
q+tWX8IL5yvHucaqoJ/moYHYpIHVMIHSMQswCQYDVQQGEwJVUzEWMBQGA1UECBMN
TWFzc2FjaHVzZXR0czESMBAGA1UEBxMJQ2FtYnJpZGdlMRwwGgYDVQQKExNHRU5J
IFByb2plY3QgT2ZmaWNlMR4wHAYDVQQLExVDZXJ0aWZpY2F0ZSBBdXRob3JpdHkx
IzAhBgNVBAMTGmJvc3MucGdlbmkzLmdwb2xhYi5iYm4uY29tMTQwMgYJKoZIhvcN
AQkBFiV0ZXN0YmVkLW9wc0BvcHMucGdlbmkzLmdwb2xhYi5iYm4uY29tggkA6JHn
g2C0NrwwDAYDVR0TBAUwAwEB/zBABgNVHREEOTA3hjV1cm46cHVibGljaWQ6SURO
K3BnZW5pMy5ncG9sYWIuYmJuLmNvbSthdXRob3JpdHkrcm9vdDBABgNVHRIEOTA3
hjV1cm46cHVibGljaWQ6SUROK3BnZW5pMy5ncG9sYWIuYmJuLmNvbSthdXRob3Jp
dHkrcm9vdDANBgkqhkiG9w0BAQQFAAOBgQBAeGNj08iktMJyhi4wDttCgvWbvFk/
mCstvuOACXfI9j9EX9wpIZ8qjAuHW+wtnOkLuX98YypsGsvE6XoBw+sxVP77kmHy
/ma2wdQ2tdS/KH4hhtEPdqqf8/8X62UAMmP7BpP9nD1EBg0epgLoqbYB/51EoIik
qo08BrZ4VUNLKQ==
-----END CERTIFICATE-----
